target datalayout = "e-m:e-p270:32:32-p271:32:32-p272:64:64-i64:64-i128:128-f80:128-n8:16:32:64-S128"
target triple = "x86_64-pc-linux-gnu"

%struct.AVCodecContext = type { ptr, i32, i32, ptr, i32, i32, ptr, ptr, ptr, i64, i32, i32, ptr, i32, %struct.AVRational, %struct.AVRational, %struct.AVRational, i32, i32, i32, i32, i32, %struct.AVRational, i32, i32, i32, i32, i32, i32, i32, i32, i32, i32, i32, ptr, ptr, i32, float, float, float, float, float, float, float, float, float, i32, i32, i32, i32, i32, i32, i32, i32, i32, i32, i32, i32, ptr, ptr, ptr, i32, i32, i32, i32, i32, i32, i32, i32, i32, i32, %struct.AVChannelLayout, i32, i32, i32, i32, i32, i32, i32, i32, ptr, i32, i32, i32, float, float, i32, i32, i32, i32, i32, ptr, i64, i64, float, float, i32, i32, ptr, ptr, i32, i32, i32, i32, i32, ptr, ptr, ptr, ptr, i32, i32, [8 x i64], i32, i32, i32, i32, i32, i32, i32, ptr, ptr, i32, i32, i32, i32, i32, i32, i32, i32, i32, i32, ptr, ptr, i32, i32, ptr, ptr, ptr, ptr, i32, i32, i64, i32, i32, i64, ptr, i64, ptr, i32, ptr, i32 }
%struct.AVRational = type { i32, i32 }
%struct.AVChannelLayout = type { i32, i32, %union.anon.0, ptr }
%union.anon.0 = type { i64 }
%struct.HYuvDecContext = type { %struct.GetBitContext, i32, i32, i32, i32, i32, i32, i32, i32, i32, i32, i32, i32, i32, i32, i32, i32, i32, i32, %union.anon.1, [4 x [16384 x i8]], [4 x [16384 x i32]], [4096 x i32], [8 x %struct.VLC], ptr, i32, %struct.BswapDSPContext, %struct.HuffYUVDSPContext, %struct.LLVidDSPContext }
%struct.GetBitContext = type { ptr, ptr, i32, i32, i32 }
%union.anon.1 = type { [3 x ptr] }
%struct.VLC = type { i32, ptr, i32, i32 }
%struct.BswapDSPContext = type { ptr, ptr }
%struct.HuffYUVDSPContext = type { ptr, ptr, ptr }
%struct.LLVidDSPContext = type { ptr, ptr, ptr, ptr, ptr }

; Function Attrs: cold nounwind optsize uwtable
define internal i32 @decode_end(ptr noundef %0) #0 {
  %2 = alloca ptr, align 8
  %3 = alloca ptr, align 8
  %4 = alloca i32, align 4
  %5 = alloca i32, align 4
  store ptr %0, ptr %2, align 8, !tbaa !4
  call void @llvm.lifetime.start.p0(i64 8, ptr %3) #10
  %6 = load ptr, ptr %2, align 8, !tbaa !4
  %7 = getelementptr inbounds nuw %struct.AVCodecContext, ptr %6, i32 0, i32 6
  %8 = load ptr, ptr %7, align 8, !tbaa !9
  store ptr %8, ptr %3, align 8, !tbaa !29
  call void @llvm.lifetime.start.p0(i64 4, ptr %4) #10
  call void @llvm.lifetime.start.p0(i64 4, ptr %5) #10
  store i32 0, ptr %5, align 4, !tbaa !33
  br label %9

9:                                                ; preds = %19, %1
  %10 = load i32, ptr %5, align 4, !tbaa !33
  %11 = icmp slt i32 %10, 3
  br i1 %11, label %13, label %12

12:                                               ; preds = %9
  call void @llvm.lifetime.end.p0(i64 4, ptr %5) #10
  br label %22

13:                                               ; preds = %9
  %14 = load ptr, ptr %3, align 8, !tbaa !29
  %15 = getelementptr inbounds nuw %struct.HYuvDecContext, ptr %14, i32 0, i32 19
  %16 = load i32, ptr %5, align 4, !tbaa !33
  %17 = sext i32 %16 to i64
  %18 = getelementptr inbounds [3 x ptr], ptr %15, i64 0, i64 %17
  call void @av_freep(ptr noundef %18)
  br label %19

19:                                               ; preds = %13
  %20 = load i32, ptr %5, align 4, !tbaa !33
  %21 = add nsw i32 %20, 1
  store i32 %21, ptr %5, align 4, !tbaa !33
  br label %9, !llvm.loop !78

22:                                               ; preds = %12
  %23 = load ptr, ptr %3, align 8, !tbaa !29
  %24 = getelementptr inbounds nuw %struct.HYuvDecContext, ptr %23, i32 0, i32 24
  call void @av_freep(ptr noundef %24)
  store i32 0, ptr %4, align 4, !tbaa !33
  br label %25

25:                                               ; preds = %34, %22
  %26 = load i32, ptr %4, align 4, !tbaa !33
  %27 = icmp slt i32 %26, 8
  br i1 %27, label %28, label %37

28:                                               ; preds = %25
  %29 = load ptr, ptr %3, align 8, !tbaa !29
  %30 = getelementptr inbounds nuw %struct.HYuvDecContext, ptr %29, i32 0, i32 23
  %31 = load i32, ptr %4, align 4, !tbaa !33
  %32 = sext i32 %31 to i64
  %33 = getelementptr inbounds [8 x %struct.VLC], ptr %30, i64 0, i64 %32
  call void @ff_vlc_free(ptr noundef %33)
  br label %34

34:                                               ; preds = %28
  %35 = load i32, ptr %4, align 4, !tbaa !33
  %36 = add nsw i32 %35, 1
  store i32 %36, ptr %4, align 4, !tbaa !33
  br label %25, !llvm.loop !79

37:                                               ; preds = %25
  call void @llvm.lifetime.end.p0(i64 4, ptr %4) #10
  call void @llvm.lifetime.end.p0(i64 8, ptr %3) #10
  ret i32 0
}