; Function Attrs: cold nounwind optsize uwtable
define internal noundef i32 @decode_end(ptr noundef readonly captures(none) %0) #0 {
  %2 = getelementptr inbounds nuw i8, ptr %0, i64 32
  %3 = load ptr, ptr %2, align 8, !tbaa !4
  %4 = getelementptr inbounds nuw i8, ptr %3, i64 104
  br label %8

5:                                                ; preds = %8
  %6 = getelementptr inbounds nuw i8, ptr %3, i64 344384
  tail call void @av_freep(ptr noundef nonnull %6) #9
  %7 = getelementptr inbounds nuw i8, ptr %3, i64 344192
  br label %10

8:                                                ; preds = %1, %8
  %indvars.iv = phi i64 [ 0, %1 ], [ %indvars.iv.next, %8 ]
  %9 = getelementptr inbounds nuw [3 x ptr], ptr %4, i64 0, i64 %indvars.iv
  tail call void @av_freep(ptr noundef nonnull %9) #9
  %indvars.iv.next = add nuw nsw i64 %indvars.iv, 1
  %exitcond.not = icmp eq i64 %indvars.iv.next, 3
  br i1 %exitcond.not, label %5, label %8, !llvm.loop !93

10:                                               ; preds = %5, %10
  %indvars.iv13 = phi i64 [ 0, %5 ], [ %indvars.iv.next14, %10 ]
  %11 = getelementptr inbounds nuw [8 x %struct.VLC], ptr %7, i64 0, i64 %indvars.iv13
  tail call void @ff_vlc_free(ptr noundef nonnull %11) #9
  %indvars.iv.next14 = add nuw nsw i64 %indvars.iv13, 1
  %exitcond16.not = icmp eq i64 %indvars.iv.next14, 8
  br i1 %exitcond16.not, label %12, label %10, !llvm.loop !94

12:                                               ; preds = %10
  ret i32 0
}